; Function Attrs: mustprogress uwtable
define noundef nonnull ptr @_ZN8nanobind6detail18nb_inst_alloc_zeroEP11_typeobject(ptr noundef %0) local_unnamed_addr #0 {
  %2 = tail call noundef ptr @_ZN8nanobind6detail12inst_new_intEP11_typeobjectP7_objectS4_(ptr noundef %0, ptr poison, ptr poison)
  %.not = icmp eq ptr %2, null
  br i1 %.not, label %3, label %4

3:                                                ; preds = %1
  tail call void @_ZN8nanobind6detail18raise_python_errorEv() #33
  unreachable

4:                                                ; preds = %1
  %5 = ptrtoint ptr %2 to i64
  %6 = getelementptr inbounds nuw i8, ptr %2, i64 16
  %7 = load i32, ptr %6, align 8
  %8 = sext i32 %7 to i64
  %9 = add nsw i64 %8, %5
  %10 = inttoptr i64 %9 to ptr
  %11 = getelementptr inbounds nuw i8, ptr %2, i64 20
  %12 = load i32, ptr %11, align 4
  %13 = and i32 %12, 4
  %.not.i = icmp eq i32 %13, 0
  br i1 %.not.i, label %14, label %_ZN8nanobind6detail8inst_ptrEPNS0_7nb_instE.exit

14:                                               ; preds = %4
  %15 = load ptr, ptr %10, align 8
  br label %_ZN8nanobind6detail8inst_ptrEPNS0_7nb_instE.exit

_ZN8nanobind6detail8inst_ptrEPNS0_7nb_instE.exit: ; preds = %4, %14
  %16 = phi ptr [ %15, %14 ], [ %10, %4 ]
  %17 = getelementptr inbounds nuw i8, ptr %0, i64 888
  %18 = load i32, ptr %17, align 8
  %19 = zext i32 %18 to i64
  tail call void @llvm.memset.p0.i64(ptr align 1 %16, i8 0, i64 %19, i1 false)
  %20 = load i32, ptr %11, align 4
  %21 = and i32 %20, -20
  %22 = or disjoint i32 %21, 18
  store i32 %22, ptr %11, align 4
  ret ptr %2
}